target datalayout = "e-m:e-p270:32:32-p271:32:32-p272:64:64-i64:64-i128:128-f80:128-n8:16:32:64-S128"
target triple = "x86_64-pc-linux-gnu"

%struct.VuDevRegion = type { i64, i64, i64, i64, i64 }
%struct.VuDev = type { i32, i32, ptr, ptr, %struct.VuDevInflightInfo, i32, %union.pthread_mutex_t, i32, i64, ptr, i64, i64, i8, i16, ptr, ptr, ptr, ptr, ptr, i32, i8 }
%struct.VuDevInflightInfo = type { i32, ptr, i64 }
%union.pthread_mutex_t = type { %struct.__pthread_mutex_s }
%struct.__pthread_mutex_s = type { i32, i32, i32, i32, i32, i16, i16, %struct.__pthread_internal_list }
%struct.__pthread_internal_list = type { ptr, ptr }
%struct.VhostUserMsg = type <{ i32, i32, i32, %union.anon, [8 x i32], i32, ptr }>
%union.anon = type { %struct.VhostUserMemory, [8 x i8] }
%struct.VhostUserMemory = type { i32, i32, [8 x %struct.VhostUserMemoryRegion] }
%struct.VhostUserMemoryRegion = type { i64, i64, i64, i64 }
%struct.VhostUserMemRegMsg = type { i64, %struct.VhostUserMemoryRegion }
%struct.uffdio_register = type { %struct.uffdio_range, i64, i64 }
%struct.uffdio_range = type { i64, i64 }

@stderr = external global ptr, align 8
@.str.67 = private unnamed_addr constant [47 x i8] c"%s: Failed to madvise(DONTNEED) region %d: %s\0A\00", align 1
@__func__.generate_faults = private unnamed_addr constant [16 x i8] c"generate_faults\00", align 1
@.str.68 = private unnamed_addr constant [49 x i8] c"%s: Failed to madvise(NOHUGEPAGE) region %d: %s\0A\00", align 1
@.str.69 = private unnamed_addr constant [75 x i8] c"%s: Failed to userfault region %d @%lx + size:%lx offset: %lx: (ufd=%d)%s\0A\00", align 1
@.str.70 = private unnamed_addr constant [36 x i8] c"%s Region (%d) doesn't support COPY\00", align 1
@.str.71 = private unnamed_addr constant [47 x i8] c"failed to mprotect region %d for postcopy (%s)\00", align 1
@.str.90 = private unnamed_addr constant [88 x i8] c"VHOST_USER_ADD_MEM_REG received %d fds - only 1 fd should be sent for this message type\00", align 1
@.str.91 = private unnamed_addr constant [101 x i8] c"VHOST_USER_ADD_MEM_REG requires a message size of at least %zu bytes and only %d bytes were received\00", align 1
@.str.92 = private unnamed_addr constant [121 x i8] c"failing attempt to hot add memory via VHOST_USER_ADD_MEM_REG message because the backend has no free ram slots available\00", align 1

; Function Attrs: nounwind uwtable
define internal zeroext i1 @generate_faults(ptr noundef %0) #0 {
  %2 = alloca i1, align 1
  %3 = alloca ptr, align 8
  %4 = alloca i32, align 4
  %5 = alloca ptr, align 8
  %6 = alloca i32, align 4
  %7 = alloca %struct.uffdio_register, align 8
  %8 = alloca i32, align 4
  store ptr %0, ptr %3, align 8
  call void @llvm.lifetime.start.p0(i64 4, ptr %4) #13
  store i32 0, ptr %4, align 4, !annotation !4
  store i32 0, ptr %4, align 4
  br label %9

9:                                                ; preds = %139, %1
  %10 = load i32, ptr %4, align 4
  %11 = load ptr, ptr %3, align 8
  %12 = getelementptr inbounds nuw %struct.VuDev, ptr %11, i32 0, i32 1
  %13 = load i32, ptr %12, align 4
  %14 = icmp ult i32 %10, %13
  br i1 %14, label %15, label %142

15:                                               ; preds = %9
  call void @llvm.lifetime.start.p0(i64 8, ptr %5) #13
  %16 = load ptr, ptr %3, align 8
  %17 = getelementptr inbounds nuw %struct.VuDev, ptr %16, i32 0, i32 2
  %18 = load ptr, ptr %17, align 8
  %19 = load i32, ptr %4, align 4
  %20 = zext i32 %19 to i64
  %21 = getelementptr inbounds nuw %struct.VuDevRegion, ptr %18, i64 %20
  store ptr %21, ptr %5, align 8
  call void @llvm.lifetime.start.p0(i64 4, ptr %6) #13
  store i32 0, ptr %6, align 4, !annotation !4
  call void @llvm.lifetime.start.p0(i64 32, ptr %7) #13
  call void @llvm.memset.p0.i64(ptr align 8 %7, i8 0, i64 32, i1 false), !annotation !4
  %22 = load ptr, ptr %5, align 8
  %23 = getelementptr inbounds nuw %struct.VuDevRegion, ptr %22, i32 0, i32 4
  %24 = load i64, ptr %23, align 8
  %25 = inttoptr i64 %24 to ptr
  %26 = load ptr, ptr %5, align 8
  %27 = getelementptr inbounds nuw %struct.VuDevRegion, ptr %26, i32 0, i32 1
  %28 = load i64, ptr %27, align 8
  %29 = load ptr, ptr %5, align 8
  %30 = getelementptr inbounds nuw %struct.VuDevRegion, ptr %29, i32 0, i32 3
  %31 = load i64, ptr %30, align 8
  %32 = add i64 %28, %31
  %33 = call i32 @madvise(ptr noundef %25, i64 noundef %32, i32 noundef 4) #13
  store i32 %33, ptr %6, align 4
  %34 = load i32, ptr %6, align 4
  %35 = icmp ne i32 %34, 0
  br i1 %35, label %36, label %43

36:                                               ; preds = %15
  %37 = load ptr, ptr @stderr, align 8
  %38 = load i32, ptr %4, align 4
  %39 = call ptr @__errno_location() #14
  %40 = load i32, ptr %39, align 4
  %41 = call ptr @strerror(i32 noundef %40) #13
  %42 = call i32 (ptr, ptr, ...) @fprintf(ptr noundef %37, ptr noundef @.str.67, ptr noundef @__func__.generate_faults, i32 noundef %38, ptr noundef %41) #13
  br label %43

43:                                               ; preds = %36, %15
  %44 = load ptr, ptr %5, align 8
  %45 = getelementptr inbounds nuw %struct.VuDevRegion, ptr %44, i32 0, i32 4
  %46 = load i64, ptr %45, align 8
  %47 = inttoptr i64 %46 to ptr
  %48 = load ptr, ptr %5, align 8
  %49 = getelementptr inbounds nuw %struct.VuDevRegion, ptr %48, i32 0, i32 1
  %50 = load i64, ptr %49, align 8
  %51 = load ptr, ptr %5, align 8
  %52 = getelementptr inbounds nuw %struct.VuDevRegion, ptr %51, i32 0, i32 3
  %53 = load i64, ptr %52, align 8
  %54 = add i64 %50, %53
  %55 = call i32 @madvise(ptr noundef %47, i64 noundef %54, i32 noundef 15) #13
  store i32 %55, ptr %6, align 4
  %56 = load i32, ptr %6, align 4
  %57 = icmp ne i32 %56, 0
  br i1 %57, label %58, label %65

58:                                               ; preds = %43
  %59 = load ptr, ptr @stderr, align 8
  %60 = load i32, ptr %4, align 4
  %61 = call ptr @__errno_location() #14
  %62 = load i32, ptr %61, align 4
  %63 = call ptr @strerror(i32 noundef %62) #13
  %64 = call i32 (ptr, ptr, ...) @fprintf(ptr noundef %59, ptr noundef @.str.68, ptr noundef @__func__.generate_faults, i32 noundef %60, ptr noundef %63) #13
  br label %65

65:                                               ; preds = %58, %43
  %66 = load ptr, ptr %5, align 8
  %67 = getelementptr inbounds nuw %struct.VuDevRegion, ptr %66, i32 0, i32 4
  %68 = load i64, ptr %67, align 8
  %69 = getelementptr inbounds nuw %struct.uffdio_register, ptr %7, i32 0, i32 0
  %70 = getelementptr inbounds nuw %struct.uffdio_range, ptr %69, i32 0, i32 0
  store i64 %68, ptr %70, align 8
  %71 = load ptr, ptr %5, align 8
  %72 = getelementptr inbounds nuw %struct.VuDevRegion, ptr %71, i32 0, i32 1
  %73 = load i64, ptr %72, align 8
  %74 = load ptr, ptr %5, align 8
  %75 = getelementptr inbounds nuw %struct.VuDevRegion, ptr %74, i32 0, i32 3
  %76 = load i64, ptr %75, align 8
  %77 = add i64 %73, %76
  %78 = getelementptr inbounds nuw %struct.uffdio_register, ptr %7, i32 0, i32 0
  %79 = getelementptr inbounds nuw %struct.uffdio_range, ptr %78, i32 0, i32 1
  store i64 %77, ptr %79, align 8
  %80 = getelementptr inbounds nuw %struct.uffdio_register, ptr %7, i32 0, i32 1
  store i64 1, ptr %80, align 8
  %81 = load ptr, ptr %3, align 8
  %82 = getelementptr inbounds nuw %struct.VuDev, ptr %81, i32 0, i32 19
  %83 = load i32, ptr %82, align 8
  %84 = call i32 (i32, i64, ...) @ioctl(i32 noundef %83, i64 noundef 3223366144, ptr noundef %7) #13
  %85 = icmp ne i32 %84, 0
  br i1 %85, label %86, label %104

86:                                               ; preds = %65
  %87 = load ptr, ptr %3, align 8
  %88 = load i32, ptr %4, align 4
  %89 = load ptr, ptr %5, align 8
  %90 = getelementptr inbounds nuw %struct.VuDevRegion, ptr %89, i32 0, i32 4
  %91 = load i64, ptr %90, align 8
  %92 = load ptr, ptr %5, align 8
  %93 = getelementptr inbounds nuw %struct.VuDevRegion, ptr %92, i32 0, i32 1
  %94 = load i64, ptr %93, align 8
  %95 = load ptr, ptr %5, align 8
  %96 = getelementptr inbounds nuw %struct.VuDevRegion, ptr %95, i32 0, i32 3
  %97 = load i64, ptr %96, align 8
  %98 = load ptr, ptr %3, align 8
  %99 = getelementptr inbounds nuw %struct.VuDev, ptr %98, i32 0, i32 19
  %100 = load i32, ptr %99, align 8
  %101 = call ptr @__errno_location() #14
  %102 = load i32, ptr %101, align 4
  %103 = call ptr @strerror(i32 noundef %102) #13
  call void (ptr, ptr, ...) @vu_panic(ptr noundef %87, ptr noundef @.str.69, ptr noundef @__func__.generate_faults, i32 noundef %88, i64 noundef %91, i64 noundef %94, i64 noundef %97, i32 noundef %100, ptr noundef %103)
  store i1 false, ptr %2, align 1
  store i32 1, ptr %8, align 4
  br label %136

104:                                              ; preds = %65
  %105 = getelementptr inbounds nuw %struct.uffdio_register, ptr %7, i32 0, i32 2
  %106 = load i64, ptr %105, align 8
  %107 = and i64 %106, 8
  %108 = icmp ne i64 %107, 0
  br i1 %108, label %112, label %109

109:                                              ; preds = %104
  %110 = load ptr, ptr %3, align 8
  %111 = load i32, ptr %4, align 4
  call void (ptr, ptr, ...) @vu_panic(ptr noundef %110, ptr noundef @.str.70, ptr noundef @__func__.generate_faults, i32 noundef %111)
  store i1 false, ptr %2, align 1
  store i32 1, ptr %8, align 4
  br label %136

112:                                              ; preds = %104
  br label %113

113:                                              ; preds = %112
  br label %114

114:                                              ; preds = %113
  br label %115

115:                                              ; preds = %114
  %116 = load ptr, ptr %5, align 8
  %117 = getelementptr inbounds nuw %struct.VuDevRegion, ptr %116, i32 0, i32 4
  %118 = load i64, ptr %117, align 8
  %119 = inttoptr i64 %118 to ptr
  %120 = load ptr, ptr %5, align 8
  %121 = getelementptr inbounds nuw %struct.VuDevRegion, ptr %120, i32 0, i32 1
  %122 = load i64, ptr %121, align 8
  %123 = load ptr, ptr %5, align 8
  %124 = getelementptr inbounds nuw %struct.VuDevRegion, ptr %123, i32 0, i32 3
  %125 = load i64, ptr %124, align 8
  %126 = add i64 %122, %125
  %127 = call i32 @mprotect(ptr noundef %119, i64 noundef %126, i32 noundef 3) #13
  %128 = icmp ne i32 %127, 0
  br i1 %128, label %129, label %135

129:                                              ; preds = %115
  %130 = load ptr, ptr %3, align 8
  %131 = load i32, ptr %4, align 4
  %132 = call ptr @__errno_location() #14
  %133 = load i32, ptr %132, align 4
  %134 = call ptr @strerror(i32 noundef %133) #13
  call void (ptr, ptr, ...) @vu_panic(ptr noundef %130, ptr noundef @.str.71, i32 noundef %131, ptr noundef %134)
  store i1 false, ptr %2, align 1
  store i32 1, ptr %8, align 4
  br label %136

135:                                              ; preds = %115
  store i32 0, ptr %8, align 4
  br label %136

136:                                              ; preds = %135, %129, %109, %86
  call void @llvm.lifetime.end.p0(i64 32, ptr %7) #13
  call void @llvm.lifetime.end.p0(i64 4, ptr %6) #13
  call void @llvm.lifetime.end.p0(i64 8, ptr %5) #13
  %137 = load i32, ptr %8, align 4
  switch i32 %137, label %143 [
    i32 0, label %138
  ]

138:                                              ; preds = %136
  br label %139

139:                                              ; preds = %138
  %140 = load i32, ptr %4, align 4
  %141 = add i32 %140, 1
  store i32 %141, ptr %4, align 4
  br label %9

142:                                              ; preds = %9
  store i1 true, ptr %2, align 1
  store i32 1, ptr %8, align 4
  br label %143

143:                                              ; preds = %142, %136
  call void @llvm.lifetime.end.p0(i64 4, ptr %4) #13
  %144 = load i1, ptr %2, align 1
  ret i1 %144
}

; Function Attrs: nounwind uwtable
define internal void @vmsg_close_fds(ptr noundef %0) #0 {
  %2 = alloca ptr, align 8
  %3 = alloca i32, align 4
  store ptr %0, ptr %2, align 8
  call void @llvm.lifetime.start.p0(i64 4, ptr %3) #13
  store i32 0, ptr %3, align 4, !annotation !4
  store i32 0, ptr %3, align 4
  br label %4

4:                                                ; preds = %18, %1
  %5 = load i32, ptr %3, align 4
  %6 = load ptr, ptr %2, align 8
  %7 = getelementptr inbounds nuw %struct.VhostUserMsg, ptr %6, i32 0, i32 5
  %8 = load i32, ptr %7, align 1
  %9 = icmp slt i32 %5, %8
  br i1 %9, label %10, label %21

10:                                               ; preds = %4
  %11 = load ptr, ptr %2, align 8
  %12 = getelementptr inbounds nuw %struct.VhostUserMsg, ptr %11, i32 0, i32 4
  %13 = load i32, ptr %3, align 4
  %14 = sext i32 %13 to i64
  %15 = getelementptr inbounds [8 x i32], ptr %12, i64 0, i64 %14
  %16 = load i32, ptr %15, align 1
  %17 = call i32 @close(i32 noundef %16)
  br label %18

18:                                               ; preds = %10
  %19 = load i32, ptr %3, align 4
  %20 = add i32 %19, 1
  store i32 %20, ptr %3, align 4
  br label %4

21:                                               ; preds = %4
  call void @llvm.lifetime.end.p0(i64 4, ptr %3) #13
  ret void
}

; Function Attrs: nounwind uwtable
define internal zeroext i1 @vu_add_mem_reg(ptr noundef %0, ptr noundef %1) #0 {
  %3 = alloca i1, align 1
  %4 = alloca ptr, align 8
  %5 = alloca ptr, align 8
  %6 = alloca %struct.VhostUserMemoryRegion, align 8
  %7 = alloca ptr, align 8
  %8 = alloca i32, align 4
  store ptr %0, ptr %4, align 8
  store ptr %1, ptr %5, align 8
  call void @llvm.lifetime.start.p0(i64 32, ptr %6) #13
  call void @llvm.memset.p0.i64(ptr align 8 %6, i8 0, i64 32, i1 false), !annotation !4
  %9 = load ptr, ptr %5, align 8
  %10 = getelementptr inbounds nuw %struct.VhostUserMsg, ptr %9, i32 0, i32 3
  %11 = getelementptr inbounds nuw %struct.VhostUserMemRegMsg, ptr %10, i32 0, i32 1
  call void @llvm.memcpy.p0.p0.i64(ptr align 8 %6, ptr align 1 %11, i64 32, i1 false)
  call void @llvm.lifetime.start.p0(i64 8, ptr %7) #13
  store ptr %6, ptr %7, align 8
  %12 = load ptr, ptr %5, align 8
  %13 = getelementptr inbounds nuw %struct.VhostUserMsg, ptr %12, i32 0, i32 5
  %14 = load i32, ptr %13, align 1
  %15 = icmp ne i32 %14, 1
  br i1 %15, label %16, label %22

16:                                               ; preds = %2
  %17 = load ptr, ptr %5, align 8
  call void @vmsg_close_fds(ptr noundef %17)
  %18 = load ptr, ptr %4, align 8
  %19 = load ptr, ptr %5, align 8
  %20 = getelementptr inbounds nuw %struct.VhostUserMsg, ptr %19, i32 0, i32 5
  %21 = load i32, ptr %20, align 1
  call void (ptr, ptr, ...) @vu_panic(ptr noundef %18, ptr noundef @.str.90, i32 noundef %21)
  store i1 false, ptr %3, align 1
  store i32 1, ptr %8, align 4
  br label %95

22:                                               ; preds = %2
  %23 = load ptr, ptr %5, align 8
  %24 = getelementptr inbounds nuw %struct.VhostUserMsg, ptr %23, i32 0, i32 2
  %25 = load i32, ptr %24, align 1
  %26 = zext i32 %25 to i64
  %27 = icmp ult i64 %26, 32
  br i1 %27, label %28, label %38

28:                                               ; preds = %22
  %29 = load ptr, ptr %5, align 8
  %30 = getelementptr inbounds nuw %struct.VhostUserMsg, ptr %29, i32 0, i32 4
  %31 = getelementptr inbounds [8 x i32], ptr %30, i64 0, i64 0
  %32 = load i32, ptr %31, align 1
  %33 = call i32 @close(i32 noundef %32)
  %34 = load ptr, ptr %4, align 8
  %35 = load ptr, ptr %5, align 8
  %36 = getelementptr inbounds nuw %struct.VhostUserMsg, ptr %35, i32 0, i32 2
  %37 = load i32, ptr %36, align 1
  call void (ptr, ptr, ...) @vu_panic(ptr noundef %34, ptr noundef @.str.91, i64 noundef 32, i32 noundef %37)
  store i1 false, ptr %3, align 1
  store i32 1, ptr %8, align 4
  br label %95

38:                                               ; preds = %22
  %39 = load ptr, ptr %4, align 8
  %40 = getelementptr inbounds nuw %struct.VuDev, ptr %39, i32 0, i32 1
  %41 = load i32, ptr %40, align 4
  %42 = icmp eq i32 %41, 509
  br i1 %42, label %43, label %50

43:                                               ; preds = %38
  %44 = load ptr, ptr %5, align 8
  %45 = getelementptr inbounds nuw %struct.VhostUserMsg, ptr %44, i32 0, i32 4
  %46 = getelementptr inbounds [8 x i32], ptr %45, i64 0, i64 0
  %47 = load i32, ptr %46, align 1
  %48 = call i32 @close(i32 noundef %47)
  %49 = load ptr, ptr %4, align 8
  call void (ptr, ptr, ...) @vu_panic(ptr noundef %49, ptr noundef @.str.92)
  store i1 false, ptr %3, align 1
  store i32 1, ptr %8, align 4
  br label %95

50:                                               ; preds = %38
  %51 = load ptr, ptr %4, align 8
  %52 = getelementptr inbounds nuw %struct.VuDev, ptr %51, i32 0, i32 20
  %53 = load i8, ptr %52, align 4, !range !5, !noundef !6
  %54 = trunc i8 %53 to i1
  br i1 %54, label %55, label %69

55:                                               ; preds = %50
  %56 = load ptr, ptr %5, align 8
  %57 = getelementptr inbounds nuw %struct.VhostUserMsg, ptr %56, i32 0, i32 2
  %58 = load i32, ptr %57, align 1
  %59 = zext i32 %58 to i64
  %60 = icmp eq i64 %59, 8
  br i1 %60, label %61, label %69

61:                                               ; preds = %55
  %62 = load ptr, ptr %5, align 8
  %63 = getelementptr inbounds nuw %struct.VhostUserMsg, ptr %62, i32 0, i32 3
  %64 = load i64, ptr %63, align 1
  %65 = icmp eq i64 %64, 0
  br i1 %65, label %66, label %69

66:                                               ; preds = %61
  %67 = load ptr, ptr %4, align 8
  %68 = call zeroext i1 @generate_faults(ptr noundef %67)
  store i1 false, ptr %3, align 1
  store i32 1, ptr %8, align 4
  br label %95

69:                                               ; preds = %61, %55, %50
  %70 = load ptr, ptr %4, align 8
  %71 = load ptr, ptr %7, align 8
  %72 = load ptr, ptr %5, align 8
  %73 = getelementptr inbounds nuw %struct.VhostUserMsg, ptr %72, i32 0, i32 4
  %74 = getelementptr inbounds [8 x i32], ptr %73, i64 0, i64 0
  %75 = load i32, ptr %74, align 1
  call void @_vu_add_mem_reg(ptr noundef %70, ptr noundef %71, i32 noundef %75)
  %76 = load ptr, ptr %5, align 8
  %77 = getelementptr inbounds nuw %struct.VhostUserMsg, ptr %76, i32 0, i32 4
  %78 = getelementptr inbounds [8 x i32], ptr %77, i64 0, i64 0
  %79 = load i32, ptr %78, align 1
  %80 = call i32 @close(i32 noundef %79)
  %81 = load ptr, ptr %4, align 8
  %82 = getelementptr inbounds nuw %struct.VuDev, ptr %81, i32 0, i32 20
  %83 = load i8, ptr %82, align 4, !range !5, !noundef !6
  %84 = trunc i8 %83 to i1
  br i1 %84, label %85, label %91

85:                                               ; preds = %69
  %86 = load ptr, ptr %5, align 8
  %87 = getelementptr inbounds nuw %struct.VhostUserMsg, ptr %86, i32 0, i32 5
  store i32 0, ptr %87, align 1
  br label %88

88:                                               ; preds = %85
  br label %89

89:                                               ; preds = %88
  br label %90

90:                                               ; preds = %89
  store i1 true, ptr %3, align 1
  store i32 1, ptr %8, align 4
  br label %95

91:                                               ; preds = %69
  br label %92

92:                                               ; preds = %91
  br label %93

93:                                               ; preds = %92
  br label %94

94:                                               ; preds = %93
  store i1 false, ptr %3, align 1
  store i32 1, ptr %8, align 4
  br label %95

95:                                               ; preds = %94, %90, %66, %43, %28, %16
  call void @llvm.lifetime.end.p0(i64 8, ptr %7) #13
  call void @llvm.lifetime.end.p0(i64 32, ptr %6) #13
  %96 = load i1, ptr %3, align 1
  ret i1 %96
}