; Function Attrs: nounwind uwtable
define internal fastcc noundef zeroext i1 @vu_add_mem_reg(ptr noundef %0, ptr noundef nonnull captures(none) %1) unnamed_addr #3 {
  %3 = alloca %struct.VhostUserMemoryRegion, align 8
  call void @llvm.lifetime.start.p0(i64 32, ptr nonnull %3) #21
  %4 = getelementptr inbounds nuw i8, ptr %1, i64 20
  call void @llvm.memcpy.p0.p0.i64(ptr noundef nonnull align 8 dereferenceable(32) %3, ptr noundef nonnull align 1 dereferenceable(32) %4, i64 32, i1 false)
  %5 = getelementptr inbounds nuw i8, ptr %1, i64 316
  %6 = load i32, ptr %5, align 1
  %.not = icmp eq i32 %6, 1
  br i1 %.not, label %18, label %7

7:                                                ; preds = %2
  %8 = icmp sgt i32 %6, 0
  br i1 %8, label %.lr.ph.i, label %vmsg_close_fds.exit

.lr.ph.i:                                         ; preds = %7
  %9 = getelementptr inbounds nuw i8, ptr %1, i64 284
  br label %10

10:                                               ; preds = %10, %.lr.ph.i
  %indvars.iv.i = phi i64 [ 0, %.lr.ph.i ], [ %indvars.iv.next.i, %10 ]
  %11 = getelementptr inbounds nuw [8 x i32], ptr %9, i64 0, i64 %indvars.iv.i
  %12 = load i32, ptr %11, align 1
  %13 = tail call i32 @close(i32 noundef %12) #21
  %indvars.iv.next.i = add nuw nsw i64 %indvars.iv.i, 1
  %14 = load i32, ptr %5, align 1
  %15 = sext i32 %14 to i64
  %16 = icmp slt i64 %indvars.iv.next.i, %15
  br i1 %16, label %10, label %vmsg_close_fds.exit

vmsg_close_fds.exit:                              ; preds = %10, %7
  %17 = phi i32 [ %6, %7 ], [ %14, %10 ]
  tail call void (ptr, ptr, ...) @vu_panic(ptr noundef %0, ptr noundef nonnull @.str.90, i32 noundef %17)
  br label %44

18:                                               ; preds = %2
  %19 = getelementptr inbounds nuw i8, ptr %1, i64 8
  %20 = load i32, ptr %19, align 1
  %21 = icmp ult i32 %20, 32
  br i1 %21, label %22, label %27

22:                                               ; preds = %18
  %23 = getelementptr inbounds nuw i8, ptr %1, i64 284
  %24 = load i32, ptr %23, align 1
  %25 = tail call i32 @close(i32 noundef %24) #21
  %26 = load i32, ptr %19, align 1
  tail call void (ptr, ptr, ...) @vu_panic(ptr noundef %0, ptr noundef nonnull @.str.91, i64 noundef 32, i32 noundef %26)
  br label %44

27:                                               ; preds = %18
  %28 = getelementptr inbounds nuw i8, ptr %0, i64 4
  %29 = load i32, ptr %28, align 4
  %30 = icmp eq i32 %29, 509
  br i1 %30, label %31, label %35

31:                                               ; preds = %27
  %32 = getelementptr inbounds nuw i8, ptr %1, i64 284
  %33 = load i32, ptr %32, align 1
  %34 = tail call i32 @close(i32 noundef %33) #21
  tail call void (ptr, ptr, ...) @vu_panic(ptr noundef nonnull %0, ptr noundef nonnull @.str.92)
  br label %44

35:                                               ; preds = %27
  %36 = getelementptr inbounds nuw i8, ptr %0, i64 188
  %37 = getelementptr inbounds nuw i8, ptr %1, i64 284
  %38 = load i32, ptr %37, align 1
  call fastcc void @_vu_add_mem_reg(ptr noundef nonnull %0, ptr noundef %3, i32 noundef %38)
  %39 = load i32, ptr %37, align 1
  %40 = tail call i32 @close(i32 noundef %39) #21
  %41 = load i8, ptr %36, align 4, !range !5, !noundef !6
  %42 = trunc nuw i8 %41 to i1
  br i1 %42, label %43, label %44

43:                                               ; preds = %35
  store i32 0, ptr %5, align 1
  br label %44

44:                                               ; preds = %35, %43, %31, %22, %vmsg_close_fds.exit
  %.0 = phi i1 [ false, %vmsg_close_fds.exit ], [ false, %22 ], [ false, %31 ], [ true, %43 ], [ false, %35 ]
  call void @llvm.lifetime.end.p0(i64 32, ptr nonnull %3) #21
  ret i1 %.0
}